target datalayout = "e-m:e-p270:32:32-p271:32:32-p272:64:64-i64:64-i128:128-f80:128-n8:16:32:64-S128"
target triple = "x86_64-pc-linux-gnu"

%struct.bufferevent_pair = type { %struct.bufferevent_private, ptr, ptr }
%struct.bufferevent_private = type { %struct.bufferevent, ptr, i8, i16, i16, i16, i32, i32, %struct.event_callback, i32, i32, ptr, i64, i64, ptr, %union.anon.7, ptr }
%struct.bufferevent = type { ptr, ptr, %struct.event, %struct.event, ptr, ptr, %struct.event_watermark, %struct.event_watermark, ptr, ptr, ptr, ptr, %struct.timeval, %struct.timeval, i16 }
%struct.event = type { %struct.event_callback, %union.anon.0, i32, i16, i16, ptr, %union.anon.2, %struct.timeval }
%union.anon.0 = type { %struct.anon.1 }
%struct.anon.1 = type { ptr, ptr }
%union.anon.2 = type { %struct.anon.3 }
%struct.anon.3 = type { %struct.anon.4, %struct.timeval }
%struct.anon.4 = type { ptr, ptr }
%struct.event_watermark = type { i64, i64 }
%struct.timeval = type { i64, i64 }
%struct.event_callback = type { %struct.anon, i16, i8, i8, %union.anon, ptr }
%struct.anon = type { ptr, ptr }
%union.anon = type { ptr }
%union.anon.7 = type { %struct.sockaddr_in6 }
%struct.sockaddr_in6 = type { i16, i16, i32, %struct.in6_addr, i32 }
%struct.in6_addr = type { %union.anon.8 }
%union.anon.8 = type { [4 x i32] }

; Function Attrs: inlinehint nounwind uwtable
define internal void @decref_and_unlock(ptr noundef %0) #3 {
  %2 = alloca ptr, align 8
  %3 = alloca ptr, align 8
  store ptr %0, ptr %2, align 8
  call void @llvm.lifetime.start.p0(i64 8, ptr %3) #4
  %4 = load ptr, ptr %2, align 8
  %5 = call ptr @upcast(ptr noundef %4)
  store ptr %5, ptr %3, align 8
  %6 = load ptr, ptr %3, align 8
  %7 = getelementptr inbounds nuw %struct.bufferevent_pair, ptr %6, i32 0, i32 1
  %8 = load ptr, ptr %7, align 8
  %9 = icmp ne ptr %8, null
  br i1 %9, label %10, label %17

10:                                               ; preds = %1
  %11 = load ptr, ptr %3, align 8
  %12 = getelementptr inbounds nuw %struct.bufferevent_pair, ptr %11, i32 0, i32 1
  %13 = load ptr, ptr %12, align 8
  %14 = getelementptr inbounds nuw %struct.bufferevent_pair, ptr %13, i32 0, i32 0
  %15 = getelementptr inbounds nuw %struct.bufferevent_private, ptr %14, i32 0, i32 0
  %16 = call i32 @bufferevent_decref_and_unlock_(ptr noundef %15)
  br label %17

17:                                               ; preds = %10, %1
  %18 = load ptr, ptr %2, align 8
  %19 = call i32 @bufferevent_decref_and_unlock_(ptr noundef %18)
  call void @llvm.lifetime.end.p0(i64 8, ptr %3) #4
  ret void
}

; Function Attrs: inlinehint nounwind uwtable
define internal i32 @be_pair_wants_to_talk(ptr noundef %0, ptr noundef %1) #3 {
  %3 = alloca ptr, align 8
  %4 = alloca ptr, align 8
  store ptr %0, ptr %3, align 8
  store ptr %1, ptr %4, align 8
  %5 = load ptr, ptr %3, align 8
  %6 = getelementptr inbounds nuw %struct.bufferevent_pair, ptr %5, i32 0, i32 0
  %7 = getelementptr inbounds nuw %struct.bufferevent_private, ptr %6, i32 0, i32 0
  %8 = getelementptr inbounds nuw %struct.bufferevent, ptr %7, i32 0, i32 14
  %9 = load i16, ptr %8, align 8
  %10 = sext i16 %9 to i32
  %11 = and i32 %10, 4
  %12 = icmp ne i32 %11, 0
  br i1 %12, label %13, label %36

13:                                               ; preds = %2
  %14 = load ptr, ptr %4, align 8
  %15 = getelementptr inbounds nuw %struct.bufferevent_pair, ptr %14, i32 0, i32 0
  %16 = getelementptr inbounds nuw %struct.bufferevent_private, ptr %15, i32 0, i32 0
  %17 = getelementptr inbounds nuw %struct.bufferevent, ptr %16, i32 0, i32 14
  %18 = load i16, ptr %17, align 8
  %19 = sext i16 %18 to i32
  %20 = and i32 %19, 2
  %21 = icmp ne i32 %20, 0
  br i1 %21, label %22, label %36

22:                                               ; preds = %13
  %23 = load ptr, ptr %4, align 8
  %24 = getelementptr inbounds nuw %struct.bufferevent_pair, ptr %23, i32 0, i32 0
  %25 = getelementptr inbounds nuw %struct.bufferevent_private, ptr %24, i32 0, i32 4
  %26 = load i16, ptr %25, align 4
  %27 = icmp ne i16 %26, 0
  br i1 %27, label %36, label %28

28:                                               ; preds = %22
  %29 = load ptr, ptr %3, align 8
  %30 = getelementptr inbounds nuw %struct.bufferevent_pair, ptr %29, i32 0, i32 0
  %31 = getelementptr inbounds nuw %struct.bufferevent_private, ptr %30, i32 0, i32 0
  %32 = getelementptr inbounds nuw %struct.bufferevent, ptr %31, i32 0, i32 5
  %33 = load ptr, ptr %32, align 8
  %34 = call i64 @evbuffer_get_length(ptr noundef %33)
  %35 = icmp ne i64 %34, 0
  br label %36

36:                                               ; preds = %28, %22, %13, %2
  %37 = phi i1 [ false, %22 ], [ false, %13 ], [ false, %2 ], [ %35, %28 ]
  %38 = zext i1 %37 to i32
  ret i32 %38
}

; Function Attrs: inlinehint nounwind uwtable
define internal void @incref_and_lock(ptr noundef %0) #3 {
  %2 = alloca ptr, align 8
  %3 = alloca ptr, align 8
  store ptr %0, ptr %2, align 8
  call void @llvm.lifetime.start.p0(i64 8, ptr %3) #4
  %4 = load ptr, ptr %2, align 8
  call void @bufferevent_incref_and_lock_(ptr noundef %4)
  %5 = load ptr, ptr %2, align 8
  %6 = call ptr @upcast(ptr noundef %5)
  store ptr %6, ptr %3, align 8
  %7 = load ptr, ptr %3, align 8
  %8 = getelementptr inbounds nuw %struct.bufferevent_pair, ptr %7, i32 0, i32 1
  %9 = load ptr, ptr %8, align 8
  %10 = icmp ne ptr %9, null
  br i1 %10, label %11, label %17

11:                                               ; preds = %1
  %12 = load ptr, ptr %3, align 8
  %13 = getelementptr inbounds nuw %struct.bufferevent_pair, ptr %12, i32 0, i32 1
  %14 = load ptr, ptr %13, align 8
  %15 = getelementptr inbounds nuw %struct.bufferevent_pair, ptr %14, i32 0, i32 0
  %16 = getelementptr inbounds nuw %struct.bufferevent_private, ptr %15, i32 0, i32 0
  call void @bufferevent_incref_and_lock_(ptr noundef %16)
  br label %17

17:                                               ; preds = %11, %1
  call void @llvm.lifetime.end.p0(i64 8, ptr %3) #4
  ret void
}

; Function Attrs: inlinehint nounwind uwtable
define internal ptr @upcast(ptr noundef %0) #3 {
  %2 = alloca ptr, align 8
  %3 = alloca ptr, align 8
  store ptr %0, ptr %2, align 8
  call void @llvm.lifetime.start.p0(i64 8, ptr %3) #4
  %4 = load ptr, ptr %2, align 8
  %5 = getelementptr inbounds i8, ptr %4, i64 0
  store ptr %5, ptr %3, align 8
  br label %6

6:                                                ; preds = %1
  br label %7

7:                                                ; preds = %6
  br label %8

8:                                                ; preds = %7
  %9 = load ptr, ptr %3, align 8
  call void @llvm.lifetime.end.p0(i64 8, ptr %3) #4
  ret ptr %9
}

; Function Attrs: nounwind uwtable
define internal i32 @be_pair_enable(ptr noundef %0, i16 noundef signext %1) #0 {
  %3 = alloca ptr, align 8
  %4 = alloca i16, align 2
  %5 = alloca ptr, align 8
  %6 = alloca ptr, align 8
  store ptr %0, ptr %3, align 8
  store i16 %1, ptr %4, align 2
  call void @llvm.lifetime.start.p0(i64 8, ptr %5) #4
  %7 = load ptr, ptr %3, align 8
  %8 = call ptr @upcast(ptr noundef %7)
  store ptr %8, ptr %5, align 8
  call void @llvm.lifetime.start.p0(i64 8, ptr %6) #4
  %9 = load ptr, ptr %5, align 8
  %10 = getelementptr inbounds nuw %struct.bufferevent_pair, ptr %9, i32 0, i32 1
  %11 = load ptr, ptr %10, align 8
  store ptr %11, ptr %6, align 8
  %12 = load ptr, ptr %3, align 8
  call void @incref_and_lock(ptr noundef %12)
  %13 = load i16, ptr %4, align 2
  %14 = sext i16 %13 to i32
  %15 = and i32 %14, 2
  %16 = icmp ne i32 %15, 0
  br i1 %16, label %17, label %39

17:                                               ; preds = %2
  br label %18

18:                                               ; preds = %17
  %19 = load ptr, ptr %3, align 8
  %20 = getelementptr inbounds nuw %struct.bufferevent, ptr %19, i32 0, i32 12
  %21 = getelementptr inbounds nuw %struct.timeval, ptr %20, i32 0, i32 0
  %22 = load i64, ptr %21, align 8
  %23 = icmp ne i64 %22, 0
  br i1 %23, label %30, label %24

24:                                               ; preds = %18
  %25 = load ptr, ptr %3, align 8
  %26 = getelementptr inbounds nuw %struct.bufferevent, ptr %25, i32 0, i32 12
  %27 = getelementptr inbounds nuw %struct.timeval, ptr %26, i32 0, i32 1
  %28 = load i64, ptr %27, align 8
  %29 = icmp ne i64 %28, 0
  br i1 %29, label %30, label %36

30:                                               ; preds = %24, %18
  %31 = load ptr, ptr %3, align 8
  %32 = getelementptr inbounds nuw %struct.bufferevent, ptr %31, i32 0, i32 2
  %33 = load ptr, ptr %3, align 8
  %34 = getelementptr inbounds nuw %struct.bufferevent, ptr %33, i32 0, i32 12
  %35 = call i32 @event_add(ptr noundef %32, ptr noundef %34)
  br label %36

36:                                               ; preds = %30, %24
  br label %37

37:                                               ; preds = %36
  br label %38

38:                                               ; preds = %37
  br label %39

39:                                               ; preds = %38, %2
  %40 = load i16, ptr %4, align 2
  %41 = sext i16 %40 to i32
  %42 = and i32 %41, 4
  %43 = icmp ne i32 %42, 0
  br i1 %43, label %44, label %72

44:                                               ; preds = %39
  %45 = load ptr, ptr %3, align 8
  %46 = getelementptr inbounds nuw %struct.bufferevent, ptr %45, i32 0, i32 5
  %47 = load ptr, ptr %46, align 8
  %48 = call i64 @evbuffer_get_length(ptr noundef %47)
  %49 = icmp ne i64 %48, 0
  br i1 %49, label %50, label %72

50:                                               ; preds = %44
  br label %51

51:                                               ; preds = %50
  %52 = load ptr, ptr %3, align 8
  %53 = getelementptr inbounds nuw %struct.bufferevent, ptr %52, i32 0, i32 13
  %54 = getelementptr inbounds nuw %struct.timeval, ptr %53, i32 0, i32 0
  %55 = load i64, ptr %54, align 8
  %56 = icmp ne i64 %55, 0
  br i1 %56, label %63, label %57

57:                                               ; preds = %51
  %58 = load ptr, ptr %3, align 8
  %59 = getelementptr inbounds nuw %struct.bufferevent, ptr %58, i32 0, i32 13
  %60 = getelementptr inbounds nuw %struct.timeval, ptr %59, i32 0, i32 1
  %61 = load i64, ptr %60, align 8
  %62 = icmp ne i64 %61, 0
  br i1 %62, label %63, label %69

63:                                               ; preds = %57, %51
  %64 = load ptr, ptr %3, align 8
  %65 = getelementptr inbounds nuw %struct.bufferevent, ptr %64, i32 0, i32 3
  %66 = load ptr, ptr %3, align 8
  %67 = getelementptr inbounds nuw %struct.bufferevent, ptr %66, i32 0, i32 13
  %68 = call i32 @event_add(ptr noundef %65, ptr noundef %67)
  br label %69

69:                                               ; preds = %63, %57
  br label %70

70:                                               ; preds = %69
  br label %71

71:                                               ; preds = %70
  br label %72

72:                                               ; preds = %71, %44, %39
  %73 = load i16, ptr %4, align 2
  %74 = sext i16 %73 to i32
  %75 = and i32 %74, 2
  %76 = icmp ne i32 %75, 0
  br i1 %76, label %77, label %90

77:                                               ; preds = %72
  %78 = load ptr, ptr %6, align 8
  %79 = icmp ne ptr %78, null
  br i1 %79, label %80, label %90

80:                                               ; preds = %77
  %81 = load ptr, ptr %6, align 8
  %82 = load ptr, ptr %5, align 8
  %83 = call i32 @be_pair_wants_to_talk(ptr noundef %81, ptr noundef %82)
  %84 = icmp ne i32 %83, 0
  br i1 %84, label %85, label %90

85:                                               ; preds = %80
  %86 = load ptr, ptr %6, align 8
  %87 = getelementptr inbounds nuw %struct.bufferevent_pair, ptr %86, i32 0, i32 0
  %88 = getelementptr inbounds nuw %struct.bufferevent_private, ptr %87, i32 0, i32 0
  %89 = load ptr, ptr %3, align 8
  call void @be_pair_transfer(ptr noundef %88, ptr noundef %89, i32 noundef 0)
  br label %90

90:                                               ; preds = %85, %80, %77, %72
  %91 = load i16, ptr %4, align 2
  %92 = sext i16 %91 to i32
  %93 = and i32 %92, 4
  %94 = icmp ne i32 %93, 0
  br i1 %94, label %95, label %108

95:                                               ; preds = %90
  %96 = load ptr, ptr %6, align 8
  %97 = icmp ne ptr %96, null
  br i1 %97, label %98, label %108

98:                                               ; preds = %95
  %99 = load ptr, ptr %5, align 8
  %100 = load ptr, ptr %6, align 8
  %101 = call i32 @be_pair_wants_to_talk(ptr noundef %99, ptr noundef %100)
  %102 = icmp ne i32 %101, 0
  br i1 %102, label %103, label %108

103:                                              ; preds = %98
  %104 = load ptr, ptr %3, align 8
  %105 = load ptr, ptr %6, align 8
  %106 = getelementptr inbounds nuw %struct.bufferevent_pair, ptr %105, i32 0, i32 0
  %107 = getelementptr inbounds nuw %struct.bufferevent_private, ptr %106, i32 0, i32 0
  call void @be_pair_transfer(ptr noundef %104, ptr noundef %107, i32 noundef 0)
  br label %108

108:                                              ; preds = %103, %98, %95, %90
  %109 = load ptr, ptr %3, align 8
  call void @decref_and_unlock(ptr noundef %109)
  call void @llvm.lifetime.end.p0(i64 8, ptr %6) #4
  call void @llvm.lifetime.end.p0(i64 8, ptr %5) #4
  ret i32 0
}