; Function Attrs: nounwind uwtable
define internal noundef i32 @be_pair_enable(ptr noundef %0, i16 noundef signext %1) #0 {
  %3 = getelementptr inbounds nuw i8, ptr %0, i64 520
  %4 = load ptr, ptr %3, align 8
  tail call void @bufferevent_incref_and_lock_(ptr noundef %0) #4
  %5 = load ptr, ptr %3, align 8
  %.not.i = icmp eq ptr %5, null
  br i1 %.not.i, label %incref_and_lock.exit, label %6

6:                                                ; preds = %2
  tail call void @bufferevent_incref_and_lock_(ptr noundef nonnull %5) #4
  br label %incref_and_lock.exit

incref_and_lock.exit:                             ; preds = %2, %6
  %7 = and i16 %1, 2
  %8 = icmp ne i16 %7, 0
  br i1 %8, label %9, label %18

9:                                                ; preds = %incref_and_lock.exit
  %10 = getelementptr inbounds nuw i8, ptr %0, i64 336
  %11 = load i64, ptr %10, align 8
  %.not = icmp eq i64 %11, 0
  br i1 %.not, label %12, label %15

12:                                               ; preds = %9
  %13 = getelementptr inbounds nuw i8, ptr %0, i64 344
  %14 = load i64, ptr %13, align 8
  %.not29 = icmp eq i64 %14, 0
  br i1 %.not29, label %18, label %15

15:                                               ; preds = %12, %9
  %16 = getelementptr inbounds nuw i8, ptr %0, i64 16
  %17 = tail call i32 @event_add(ptr noundef nonnull %16, ptr noundef nonnull %10) #4
  br label %18

18:                                               ; preds = %12, %15, %incref_and_lock.exit
  %19 = and i16 %1, 4
  %20 = icmp ne i16 %19, 0
  br i1 %20, label %21, label %34

21:                                               ; preds = %18
  %22 = getelementptr inbounds nuw i8, ptr %0, i64 264
  %23 = load ptr, ptr %22, align 8
  %24 = tail call i64 @evbuffer_get_length(ptr noundef %23) #4
  %.not30 = icmp eq i64 %24, 0
  br i1 %.not30, label %34, label %25

25:                                               ; preds = %21
  %26 = getelementptr inbounds nuw i8, ptr %0, i64 352
  %27 = load i64, ptr %26, align 8
  %.not31 = icmp eq i64 %27, 0
  br i1 %.not31, label %28, label %31

28:                                               ; preds = %25
  %29 = getelementptr inbounds nuw i8, ptr %0, i64 360
  %30 = load i64, ptr %29, align 8
  %.not32 = icmp eq i64 %30, 0
  br i1 %.not32, label %34, label %31

31:                                               ; preds = %28, %25
  %32 = getelementptr inbounds nuw i8, ptr %0, i64 136
  %33 = tail call i32 @event_add(ptr noundef nonnull %32, ptr noundef nonnull %26) #4
  br label %34

34:                                               ; preds = %28, %31, %21, %18
  %35 = icmp ne ptr %4, null
  %or.cond = select i1 %8, i1 %35, i1 false
  br i1 %or.cond, label %36, label %be_pair_wants_to_talk.exit.thread

36:                                               ; preds = %34
  %37 = getelementptr inbounds nuw i8, ptr %4, i64 368
  %38 = load i16, ptr %37, align 8
  %39 = and i16 %38, 4
  %.not.i35 = icmp eq i16 %39, 0
  br i1 %.not.i35, label %be_pair_wants_to_talk.exit.thread, label %40

40:                                               ; preds = %36
  %41 = getelementptr inbounds nuw i8, ptr %0, i64 368
  %42 = load i16, ptr %41, align 8
  %43 = and i16 %42, 2
  %.not4.i = icmp eq i16 %43, 0
  br i1 %.not4.i, label %be_pair_wants_to_talk.exit.thread, label %44

44:                                               ; preds = %40
  %45 = getelementptr inbounds nuw i8, ptr %0, i64 388
  %46 = load i16, ptr %45, align 4
  %.not5.i = icmp eq i16 %46, 0
  br i1 %.not5.i, label %be_pair_wants_to_talk.exit, label %be_pair_wants_to_talk.exit.thread

be_pair_wants_to_talk.exit:                       ; preds = %44
  %47 = getelementptr inbounds nuw i8, ptr %4, i64 264
  %48 = load ptr, ptr %47, align 8
  %49 = tail call i64 @evbuffer_get_length(ptr noundef %48) #4
  %.not43 = icmp eq i64 %49, 0
  br i1 %.not43, label %be_pair_wants_to_talk.exit.thread, label %50

50:                                               ; preds = %be_pair_wants_to_talk.exit
  tail call fastcc void @be_pair_transfer(ptr noundef nonnull %4, ptr noundef nonnull %0, i32 noundef 0)
  br label %be_pair_wants_to_talk.exit.thread

be_pair_wants_to_talk.exit.thread:                ; preds = %36, %40, %44, %50, %be_pair_wants_to_talk.exit, %34
  %or.cond3 = select i1 %20, i1 %35, i1 false
  br i1 %or.cond3, label %51, label %be_pair_wants_to_talk.exit39.thread

51:                                               ; preds = %be_pair_wants_to_talk.exit.thread
  %52 = getelementptr inbounds nuw i8, ptr %0, i64 368
  %53 = load i16, ptr %52, align 8
  %54 = and i16 %53, 4
  %.not.i36 = icmp eq i16 %54, 0
  br i1 %.not.i36, label %be_pair_wants_to_talk.exit39.thread, label %55

55:                                               ; preds = %51
  %56 = getelementptr inbounds nuw i8, ptr %4, i64 368
  %57 = load i16, ptr %56, align 8
  %58 = and i16 %57, 2
  %.not4.i37 = icmp eq i16 %58, 0
  br i1 %.not4.i37, label %be_pair_wants_to_talk.exit39.thread, label %59

59:                                               ; preds = %55
  %60 = getelementptr inbounds nuw i8, ptr %4, i64 388
  %61 = load i16, ptr %60, align 4
  %.not5.i38 = icmp eq i16 %61, 0
  br i1 %.not5.i38, label %be_pair_wants_to_talk.exit39, label %be_pair_wants_to_talk.exit39.thread

be_pair_wants_to_talk.exit39:                     ; preds = %59
  %62 = getelementptr inbounds nuw i8, ptr %0, i64 264
  %63 = load ptr, ptr %62, align 8
  %64 = tail call i64 @evbuffer_get_length(ptr noundef %63) #4
  %.not44 = icmp eq i64 %64, 0
  br i1 %.not44, label %be_pair_wants_to_talk.exit39.thread, label %65

65:                                               ; preds = %be_pair_wants_to_talk.exit39
  tail call fastcc void @be_pair_transfer(ptr noundef nonnull %0, ptr noundef nonnull %4, i32 noundef 0)
  br label %be_pair_wants_to_talk.exit39.thread

be_pair_wants_to_talk.exit39.thread:              ; preds = %51, %55, %59, %65, %be_pair_wants_to_talk.exit39, %be_pair_wants_to_talk.exit.thread
  %66 = load ptr, ptr %3, align 8
  %.not.i40 = icmp eq ptr %66, null
  br i1 %.not.i40, label %decref_and_unlock.exit, label %67

67:                                               ; preds = %be_pair_wants_to_talk.exit39.thread
  %68 = tail call i32 @bufferevent_decref_and_unlock_(ptr noundef nonnull %66) #4
  br label %decref_and_unlock.exit

decref_and_unlock.exit:                           ; preds = %be_pair_wants_to_talk.exit39.thread, %67
  %69 = tail call i32 @bufferevent_decref_and_unlock_(ptr noundef nonnull %0) #4
  ret i32 0
}